target datalayout = "e-m:e-p270:32:32-p271:32:32-p272:64:64-i64:64-i128:128-f80:128-n8:16:32:64-S128"
target triple = "x86_64-pc-linux-gnu"

%struct.Abc_Ntk_t_ = type { i32, i32, ptr, ptr, ptr, ptr, ptr, ptr, ptr, ptr, ptr, ptr, ptr, [11 x i32], i32, i32, i32, i32, ptr, i32, ptr, ptr, i32, i32, i32, double, i32, %struct.Vec_Int_t_, ptr, ptr, ptr, ptr, ptr, float, i32, ptr, ptr, ptr, ptr, ptr, ptr, ptr, ptr, ptr, ptr, ptr, ptr, ptr, ptr, ptr, ptr, ptr, ptr, ptr, ptr, ptr, ptr }
%struct.Vec_Int_t_ = type { i32, i32, ptr }

@.str = private unnamed_addr constant [8 x i8] c"unknown\00", align 1

; Function Attrs: nounwind uwtable
define ptr @Abc_NtkStartRead(ptr noundef %0) #0 {
  %2 = alloca ptr, align 8
  %3 = alloca ptr, align 8
  store ptr %0, ptr %2, align 8, !tbaa !86
  call void @llvm.lifetime.start.p0(i64 8, ptr %3) #11
  %4 = call ptr @Abc_NtkAlloc(i32 noundef 1, i32 noundef 1, i32 noundef 1)
  store ptr %4, ptr %3, align 8, !tbaa !7
  %5 = load ptr, ptr %2, align 8, !tbaa !86
  %6 = call ptr @Extra_FileNameGeneric(ptr noundef %5)
  %7 = load ptr, ptr %3, align 8, !tbaa !7
  %8 = getelementptr inbounds nuw %struct.Abc_Ntk_t_, ptr %7, i32 0, i32 2
  store ptr %6, ptr %8, align 8, !tbaa !50
  %9 = load ptr, ptr %2, align 8, !tbaa !86
  %10 = call ptr @Extra_UtilStrsav(ptr noundef %9)
  %11 = load ptr, ptr %3, align 8, !tbaa !7
  %12 = getelementptr inbounds nuw %struct.Abc_Ntk_t_, ptr %11, i32 0, i32 3
  store ptr %10, ptr %12, align 8, !tbaa !51
  %13 = load ptr, ptr %3, align 8, !tbaa !7
  %14 = getelementptr inbounds nuw %struct.Abc_Ntk_t_, ptr %13, i32 0, i32 2
  %15 = load ptr, ptr %14, align 8, !tbaa !50
  %16 = icmp eq ptr %15, null
  br i1 %16, label %23, label %17

17:                                               ; preds = %1
  %18 = load ptr, ptr %3, align 8, !tbaa !7
  %19 = getelementptr inbounds nuw %struct.Abc_Ntk_t_, ptr %18, i32 0, i32 2
  %20 = load ptr, ptr %19, align 8, !tbaa !50
  %21 = call i64 @strlen(ptr noundef %20) #13
  %22 = icmp eq i64 %21, 0
  br i1 %22, label %23, label %39

23:                                               ; preds = %17, %1
  %24 = load ptr, ptr %3, align 8, !tbaa !7
  %25 = getelementptr inbounds nuw %struct.Abc_Ntk_t_, ptr %24, i32 0, i32 2
  %26 = load ptr, ptr %25, align 8, !tbaa !50
  %27 = icmp ne ptr %26, null
  br i1 %27, label %28, label %34

28:                                               ; preds = %23
  %29 = load ptr, ptr %3, align 8, !tbaa !7
  %30 = getelementptr inbounds nuw %struct.Abc_Ntk_t_, ptr %29, i32 0, i32 2
  %31 = load ptr, ptr %30, align 8, !tbaa !50
  call void @free(ptr noundef %31) #11
  %32 = load ptr, ptr %3, align 8, !tbaa !7
  %33 = getelementptr inbounds nuw %struct.Abc_Ntk_t_, ptr %32, i32 0, i32 2
  store ptr null, ptr %33, align 8, !tbaa !50
  br label %35

34:                                               ; preds = %23
  br label %35

35:                                               ; preds = %34, %28
  %36 = call ptr @Extra_UtilStrsav(ptr noundef @.str)
  %37 = load ptr, ptr %3, align 8, !tbaa !7
  %38 = getelementptr inbounds nuw %struct.Abc_Ntk_t_, ptr %37, i32 0, i32 2
  store ptr %36, ptr %38, align 8, !tbaa !50
  br label %39

39:                                               ; preds = %35, %17
  %40 = load ptr, ptr %3, align 8, !tbaa !7
  call void @llvm.lifetime.end.p0(i64 8, ptr %3) #11
  ret ptr %40
}