; Function Attrs: nounwind uwtable
define noundef ptr @Abc_NtkStartRead(ptr noundef %0) local_unnamed_addr #0 {
  %2 = tail call ptr @Abc_NtkAlloc(i32 noundef 1, i32 noundef 1, i32 noundef 1)
  %3 = tail call ptr @Extra_FileNameGeneric(ptr noundef %0) #20
  %4 = getelementptr inbounds nuw i8, ptr %2, i64 8
  store ptr %3, ptr %4, align 8, !tbaa !47
  %5 = tail call ptr @Extra_UtilStrsav(ptr noundef %0) #20
  %6 = getelementptr inbounds nuw i8, ptr %2, i64 16
  store ptr %5, ptr %6, align 8, !tbaa !48
  %7 = load ptr, ptr %4, align 8, !tbaa !47
  %8 = icmp eq ptr %7, null
  br i1 %8, label %.thread, label %9

9:                                                ; preds = %1
  %char0 = load i8, ptr %7, align 1
  %10 = icmp eq i8 %char0, 0
  br i1 %10, label %11, label %13

11:                                               ; preds = %9
  tail call void @free(ptr noundef nonnull %7) #20
  store ptr null, ptr %4, align 8, !tbaa !47
  br label %.thread

.thread:                                          ; preds = %1, %11
  %12 = tail call ptr @Extra_UtilStrsav(ptr noundef nonnull @.str) #20
  store ptr %12, ptr %4, align 8, !tbaa !47
  br label %13

13:                                               ; preds = %.thread, %9
  ret ptr %2
}